; Function Attrs: mustprogress uwtable
define noundef zeroext i1 @_ZN7rocksdb4test22SleepingBackgroundTask18TimedWaitUntilDoneEm(ptr noundef nonnull align 8 dereferenceable(99) %0, i64 noundef %1) local_unnamed_addr #7 align 2 personality ptr @__gxx_personality_v0 {
  %3 = tail call noundef nonnull align 8 dereferenceable(16) ptr @_ZN7rocksdb11SystemClock7DefaultEv()
  %4 = load ptr, ptr %3, align 8, !tbaa !75
  %5 = load ptr, ptr %4, align 8, !tbaa !25
  %6 = getelementptr inbounds nuw i8, ptr %5, i64 152
  %7 = load ptr, ptr %6, align 8
  %8 = tail call noundef i64 %7(ptr noundef nonnull align 8 dereferenceable(32) %4)
  %9 = add i64 %8, %1
  tail call void @_ZN7rocksdb4port5Mutex4LockEv(ptr noundef nonnull align 8 dereferenceable(40) %0)
  %10 = getelementptr inbounds nuw i8, ptr %0, i64 97
  %11 = getelementptr inbounds nuw i8, ptr %0, i64 40
  br label %12

12:                                               ; preds = %17, %2
  %13 = load i8, ptr %10, align 1, !tbaa !88, !range !84, !noundef !85
  %14 = trunc nuw i8 %13 to i1
  br i1 %14, label %23, label %15

15:                                               ; preds = %12
  %16 = invoke noundef zeroext i1 @_ZN7rocksdb4port7CondVar9TimedWaitEm(ptr noundef nonnull align 8 dereferenceable(56) %11, i64 noundef %9)
          to label %17 unwind label %18

17:                                               ; preds = %15
  br i1 %16, label %23, label %12, !llvm.loop !89

18:                                               ; preds = %15
  %19 = landingpad { ptr, i32 }
          cleanup
  invoke void @_ZN7rocksdb4port5Mutex6UnlockEv(ptr noundef nonnull align 8 dereferenceable(40) %0)
          to label %_ZN7rocksdb9MutexLockD2Ev.exit unwind label %20

20:                                               ; preds = %18
  %21 = landingpad { ptr, i32 }
          catch ptr null
  %22 = extractvalue { ptr, i32 } %21, 0
  tail call void @__clang_call_terminate(ptr %22) #35
  unreachable

_ZN7rocksdb9MutexLockD2Ev.exit:                   ; preds = %18
  resume { ptr, i32 } %19

23:                                               ; preds = %12, %17
  invoke void @_ZN7rocksdb4port5Mutex6UnlockEv(ptr noundef nonnull align 8 dereferenceable(40) %0)
          to label %_ZN7rocksdb9MutexLockD2Ev.exit5 unwind label %24

24:                                               ; preds = %23
  %25 = landingpad { ptr, i32 }
          catch ptr null
  %26 = extractvalue { ptr, i32 } %25, 0
  tail call void @__clang_call_terminate(ptr %26) #35
  unreachable

_ZN7rocksdb9MutexLockD2Ev.exit5:                  ; preds = %23
  %.0 = xor i1 %14, true
  ret i1 %.0
}